; ModuleID = '33/782.c'
source_filename = "33/782.c"
target datalayout = "e-m:e-p270:32:32-p271:32:32-p272:64:64-i64:64-f80:128-n8:16:32:64-S128"
target triple = "x86_64-pc-linux-gnu"

@.str = private unnamed_addr constant [3 x i8] c"%d\00", align 1
@.str.1 = private unnamed_addr constant [4 x i8] c"%s\0A\00", align 1

; Function Attrs: noinline nounwind uwtable
define dso_local i32 @main() #0 {
  %1 = alloca i32, align 4
  %2 = alloca i32, align 4
  %3 = alloca [400 x i8], align 16
  %4 = alloca i8*, align 8
  %5 = alloca i32, align 4
  store i32 0, i32* %1, align 4
  %6 = call i32 (i8*, ...) @__isoc99_scanf(i8* getelementptr inbounds ([3 x i8], [3 x i8]* @.str, i64 0, i64 0), i32* %2)
  store i32 0, i32* %5, align 4
  br label %7

7:                                                ; preds = %58, %0
  %8 = load i32, i32* %5, align 4
  %9 = load i32, i32* %2, align 4
  %10 = icmp sle i32 %8, %9
  br i1 %10, label %11, label %61

11:                                               ; preds = %7
  %12 = getelementptr inbounds [400 x i8], [400 x i8]* %3, i64 0, i64 0
  %13 = call i32 (i8*, ...) bitcast (i32 (...)* @gets to i32 (i8*, ...)*)(i8* %12)
  %14 = getelementptr inbounds [400 x i8], [400 x i8]* %3, i64 0, i64 0
  store i8* %14, i8** %4, align 8
  br label %15

15:                                               ; preds = %52, %11
  %16 = load i8*, i8** %4, align 8
  %17 = load i8, i8* %16, align 1
  %18 = sext i8 %17 to i32
  %19 = icmp ne i32 %18, 0
  br i1 %19, label %20, label %55

20:                                               ; preds = %15
  %21 = load i8*, i8** %4, align 8
  %22 = load i8, i8* %21, align 1
  %23 = sext i8 %22 to i32
  %24 = icmp eq i32 %23, 65
  br i1 %24, label %25, label %27

25:                                               ; preds = %20
  %26 = load i8*, i8** %4, align 8
  store i8 84, i8* %26, align 1
  br label %51

27:                                               ; preds = %20
  %28 = load i8*, i8** %4, align 8
  %29 = load i8, i8* %28, align 1
  %30 = sext i8 %29 to i32
  %31 = icmp eq i32 %30, 67
  br i1 %31, label %32, label %34

32:                                               ; preds = %27
  %33 = load i8*, i8** %4, align 8
  store i8 71, i8* %33, align 1
  br label %50

34:                                               ; preds = %27
  %35 = load i8*, i8** %4, align 8
  %36 = load i8, i8* %35, align 1
  %37 = sext i8 %36 to i32
  %38 = icmp eq i32 %37, 84
  br i1 %38, label %39, label %41

39:                                               ; preds = %34
  %40 = load i8*, i8** %4, align 8
  store i8 65, i8* %40, align 1
  br label %49

41:                                               ; preds = %34
  %42 = load i8*, i8** %4, align 8
  %43 = load i8, i8* %42, align 1
  %44 = sext i8 %43 to i32
  %45 = icmp eq i32 %44, 71
  br i1 %45, label %46, label %48

46:                                               ; preds = %41
  %47 = load i8*, i8** %4, align 8
  store i8 67, i8* %47, align 1
  br label %48

48:                                               ; preds = %46, %41
  br label %49

49:                                               ; preds = %48, %39
  br label %50

50:                                               ; preds = %49, %32
  br label %51

51:                                               ; preds = %50, %25
  br label %52

52:                                               ; preds = %51
  %53 = load i8*, i8** %4, align 8
  %54 = getelementptr inbounds i8, i8* %53, i32 1
  store i8* %54, i8** %4, align 8
  br label %15

55:                                               ; preds = %15
  %56 = getelementptr inbounds [400 x i8], [400 x i8]* %3, i64 0, i64 0
  %57 = call i32 (i8*, ...) @printf(i8* getelementptr inbounds ([4 x i8], [4 x i8]* @.str.1, i64 0, i64 0), i8* %56)
  br label %58

58:                                               ; preds = %55
  %59 = load i32, i32* %5, align 4
  %60 = add nsw i32 %59, 1
  store i32 %60, i32* %5, align 4
  br label %7

61:                                               ; preds = %7
  %62 = load i32, i32* %1, align 4
  ret i32 %62
}

declare dso_local i32 @__isoc99_scanf(i8*, ...) #1

declare dso_local i32 @gets(...) #1

declare dso_local i32 @printf(i8*, ...) #1


!llvm.module.flags = !{!0}
!llvm.ident = !{!1}

!0 = !{i32 1, !"wchar_size", i32 4}
!1 = !{!"clang version 10.0.0-4ubuntu1 "}
